; Function Attrs: mustprogress nofree norecurse nosync nounwind willreturn memory(argmem: readwrite) uwtable
define i32 @PQsetErrorContextVisibility(ptr noundef captures(address_is_null) %0, i32 noundef %1) local_unnamed_addr #18 {
  %.not = icmp eq ptr %0, null
  br i1 %.not, label %6, label %3

3:                                                ; preds = %2
  %4 = getelementptr inbounds nuw i8, ptr %0, i64 972
  %5 = load i32, ptr %4, align 4
  store i32 %1, ptr %4, align 4
  br label %6

6:                                                ; preds = %2, %3
  %.0 = phi i32 [ %5, %3 ], [ 1, %2 ]
  ret i32 %.0
}